target datalayout = "e-m:e-p270:32:32-p271:32:32-p272:64:64-i64:64-i128:128-f80:128-n8:16:32:64-S128"
target triple = "x86_64-unknown-linux-gnu"

%"class.std::_Function_base" = type { %"union.std::_Any_data", ptr }
%"union.std::_Any_data" = type { %"union.std::_Nocopy_types" }
%"union.std::_Nocopy_types" = type { { i64, i64 } }
%"class.std::function.14" = type { %"class.std::_Function_base", ptr }
%class.anon.18 = type { ptr, ptr, ptr, ptr }

; Function Attrs: mustprogress nounwind uwtable
define linkonce_odr noundef ptr @_ZNSt9_Any_data9_M_accessEv(ptr noundef nonnull align 8 dereferenceable(16) %this) #5 comdat align 2 {
entry:
  %this.addr = alloca ptr, align 8
  store ptr %this, ptr %this.addr, align 8
  %this1 = load ptr, ptr %this.addr, align 8
  %arrayidx = getelementptr inbounds [16 x i8], ptr %this1, i64 0, i64 0
  ret ptr %arrayidx
}

; Function Attrs: mustprogress nounwind uwtable
define internal noundef nonnull align 8 dereferenceable(8) ptr @"_ZNSt9_Any_data9_M_accessIPZN8facebook5velox6memory15MemoryAllocator13allocateBytesEmtE3$_0EERT_v"(ptr noundef nonnull align 8 dereferenceable(16) %this) #5 align 2 {
entry:
  %this.addr = alloca ptr, align 8
  store ptr %this, ptr %this.addr, align 8
  %this1 = load ptr, ptr %this.addr, align 8
  %call = call noundef ptr @_ZNSt9_Any_data9_M_accessEv(ptr noundef nonnull align 8 dereferenceable(16) %this1) #3
  ret ptr %call
}

; Function Attrs: mustprogress uwtable
define internal void @"_ZNSt14_Function_base13_Base_managerIZN8facebook5velox6memory15MemoryAllocator13allocateBytesEmtE3$_0E9_M_createIS5_EEvRSt9_Any_dataOT_St17integral_constantIbLb0EE"(ptr noundef nonnull align 8 dereferenceable(16) %__dest, ptr noundef nonnull align 8 dereferenceable(32) %__f) #4 align 2 {
entry:
  %__dest.addr = alloca ptr, align 8
  %__f.addr = alloca ptr, align 8
  store ptr %__dest, ptr %__dest.addr, align 8
  store ptr %__f, ptr %__f.addr, align 8
  %call = call noalias noundef nonnull ptr @_Znwm(i64 noundef 32) #23
  %0 = load ptr, ptr %__f.addr, align 8
  call void @llvm.memcpy.p0.p0.i64(ptr align 16 %call, ptr align 8 %0, i64 32, i1 false)
  %1 = load ptr, ptr %__dest.addr, align 8
  %call1 = call noundef nonnull align 8 dereferenceable(8) ptr @"_ZNSt9_Any_data9_M_accessIPZN8facebook5velox6memory15MemoryAllocator13allocateBytesEmtE3$_0EERT_v"(ptr noundef nonnull align 8 dereferenceable(16) %1) #3
  store ptr %call, ptr %call1, align 8
  ret void
}

; Function Attrs: mustprogress nounwind uwtable
define linkonce_odr void @_ZNSt14_Function_baseD2Ev(ptr noundef nonnull align 8 dereferenceable(24) %this) unnamed_addr #5 comdat align 2 personality ptr @__gxx_personality_v0 {
entry:
  %this.addr = alloca ptr, align 8
  store ptr %this, ptr %this.addr, align 8
  %this1 = load ptr, ptr %this.addr, align 8
  %_M_manager = getelementptr inbounds %"class.std::_Function_base", ptr %this1, i32 0, i32 1
  %0 = load ptr, ptr %_M_manager, align 8
  %tobool = icmp ne ptr %0, null
  br i1 %tobool, label %if.then, label %if.end

if.then:                                          ; preds = %entry
  %_M_manager2 = getelementptr inbounds %"class.std::_Function_base", ptr %this1, i32 0, i32 1
  %1 = load ptr, ptr %_M_manager2, align 8
  %_M_functor = getelementptr inbounds %"class.std::_Function_base", ptr %this1, i32 0, i32 0
  %_M_functor3 = getelementptr inbounds %"class.std::_Function_base", ptr %this1, i32 0, i32 0
  %call = invoke noundef zeroext i1 %1(ptr noundef nonnull align 8 dereferenceable(16) %_M_functor, ptr noundef nonnull align 8 dereferenceable(16) %_M_functor3, i32 noundef 3)
          to label %invoke.cont unwind label %terminate.lpad

invoke.cont:                                      ; preds = %if.then
  br label %if.end

if.end:                                           ; preds = %invoke.cont, %entry
  ret void

terminate.lpad:                                   ; preds = %if.then
  %2 = landingpad { ptr, i32 }
          catch ptr null
  %3 = extractvalue { ptr, i32 } %2, 0
  call void @__clang_call_terminate(ptr %3) #20
  unreachable
}

; Function Attrs: mustprogress uwtable
define internal void @"_ZNSt14_Function_base13_Base_managerIZN8facebook5velox6memory15MemoryAllocator13allocateBytesEmtE3$_0E15_M_init_functorIS5_EEvRSt9_Any_dataOT_"(ptr noundef nonnull align 8 dereferenceable(16) %__functor, ptr noundef nonnull align 8 dereferenceable(32) %__f) #4 align 2 {
entry:
  %__functor.addr = alloca ptr, align 8
  %__f.addr = alloca ptr, align 8
  store ptr %__functor, ptr %__functor.addr, align 8
  store ptr %__f, ptr %__f.addr, align 8
  %0 = load ptr, ptr %__functor.addr, align 8
  %1 = load ptr, ptr %__f.addr, align 8
  call void @"_ZNSt14_Function_base13_Base_managerIZN8facebook5velox6memory15MemoryAllocator13allocateBytesEmtE3$_0E9_M_createIS5_EEvRSt9_Any_dataOT_St17integral_constantIbLb0EE"(ptr noundef nonnull align 8 dereferenceable(16) %0, ptr noundef nonnull align 8 dereferenceable(32) %1)
  ret void
}

; Function Attrs: mustprogress nounwind uwtable
define internal noundef zeroext i1 @"_ZNSt14_Function_base13_Base_managerIZN8facebook5velox6memory15MemoryAllocator13allocateBytesEmtE3$_0E21_M_not_empty_functionIS5_EEbRKT_"(ptr noundef nonnull align 8 dereferenceable(32) %0) #5 align 2 {
entry:
  %.addr = alloca ptr, align 8
  store ptr %0, ptr %.addr, align 8
  ret i1 true
}

; Function Attrs: mustprogress nounwind uwtable
define linkonce_odr void @_ZNSt14_Function_baseC2Ev(ptr noundef nonnull align 8 dereferenceable(24) %this) unnamed_addr #5 comdat align 2 {
entry:
  %this.addr = alloca ptr, align 8
  store ptr %this, ptr %this.addr, align 8
  %this1 = load ptr, ptr %this.addr, align 8
  %_M_functor = getelementptr inbounds %"class.std::_Function_base", ptr %this1, i32 0, i32 0
  store ptr null, ptr %_M_functor, align 8
  %_M_manager = getelementptr inbounds %"class.std::_Function_base", ptr %this1, i32 0, i32 1
  store ptr null, ptr %_M_manager, align 8
  ret void
}

; Function Attrs: mustprogress nounwind uwtable
define linkonce_odr void @_ZNSt8functionIFbRN8facebook5velox6memory10AllocationEEED2Ev(ptr noundef nonnull align 8 dereferenceable(32) %this) unnamed_addr #5 comdat align 2 {
entry:
  %this.addr = alloca ptr, align 8
  store ptr %this, ptr %this.addr, align 8
  %this1 = load ptr, ptr %this.addr, align 8
  call void @_ZNSt14_Function_baseD2Ev(ptr noundef nonnull align 8 dereferenceable(24) %this1) #3
  ret void
}

; Function Attrs: mustprogress uwtable
define internal void @"_ZNSt8functionIFbRN8facebook5velox6memory10AllocationEEEC2IZNS2_15MemoryAllocator13allocateBytesEmtE3$_0vEEOT_"(ptr noundef nonnull align 8 dereferenceable(32) %this, ptr noundef nonnull align 8 dereferenceable(32) %__f) unnamed_addr #4 align 2 personality ptr @__gxx_personality_v0 {
entry:
  %this.addr = alloca ptr, align 8
  %__f.addr = alloca ptr, align 8
  %exn.slot = alloca ptr, align 8
  %ehselector.slot = alloca i32, align 4
  store ptr %this, ptr %this.addr, align 8
  store ptr %__f, ptr %__f.addr, align 8
  %this1 = load ptr, ptr %this.addr, align 8
  %0 = getelementptr inbounds i8, ptr %this1, i64 0
  call void @llvm.memset.p0.i64(ptr align 8 %0, i8 0, i64 24, i1 false)
  call void @_ZNSt14_Function_baseC2Ev(ptr noundef nonnull align 8 dereferenceable(24) %this1) #3
  %_M_invoker = getelementptr inbounds %"class.std::function.14", ptr %this1, i32 0, i32 1
  store ptr null, ptr %_M_invoker, align 8
  %1 = load ptr, ptr %__f.addr, align 8
  %call = call noundef zeroext i1 @"_ZNSt14_Function_base13_Base_managerIZN8facebook5velox6memory15MemoryAllocator13allocateBytesEmtE3$_0E21_M_not_empty_functionIS5_EEbRKT_"(ptr noundef nonnull align 8 dereferenceable(32) %1) #3
  br i1 %call, label %if.then, label %if.end

if.then:                                          ; preds = %entry
  %_M_functor = getelementptr inbounds %"class.std::_Function_base", ptr %this1, i32 0, i32 0
  %2 = load ptr, ptr %__f.addr, align 8
  invoke void @"_ZNSt14_Function_base13_Base_managerIZN8facebook5velox6memory15MemoryAllocator13allocateBytesEmtE3$_0E15_M_init_functorIS5_EEvRSt9_Any_dataOT_"(ptr noundef nonnull align 8 dereferenceable(16) %_M_functor, ptr noundef nonnull align 8 dereferenceable(32) %2)
          to label %invoke.cont unwind label %lpad

invoke.cont:                                      ; preds = %if.then
  %_M_invoker2 = getelementptr inbounds %"class.std::function.14", ptr %this1, i32 0, i32 1
  store ptr @"_ZNSt17_Function_handlerIFbRN8facebook5velox6memory10AllocationEEZNS2_15MemoryAllocator13allocateBytesEmtE3$_0E9_M_invokeERKSt9_Any_dataS4_", ptr %_M_invoker2, align 8
  %_M_manager = getelementptr inbounds %"class.std::_Function_base", ptr %this1, i32 0, i32 1
  store ptr @"_ZNSt17_Function_handlerIFbRN8facebook5velox6memory10AllocationEEZNS2_15MemoryAllocator13allocateBytesEmtE3$_0E10_M_managerERSt9_Any_dataRKS9_St18_Manager_operation", ptr %_M_manager, align 8
  br label %if.end

lpad:                                             ; preds = %if.then
  %3 = landingpad { ptr, i32 }
          cleanup
  %4 = extractvalue { ptr, i32 } %3, 0
  store ptr %4, ptr %exn.slot, align 8
  %5 = extractvalue { ptr, i32 } %3, 1
  store i32 %5, ptr %ehselector.slot, align 4
  call void @_ZNSt14_Function_baseD2Ev(ptr noundef nonnull align 8 dereferenceable(24) %this1) #3
  br label %eh.resume

if.end:                                           ; preds = %invoke.cont, %entry
  ret void

eh.resume:                                        ; preds = %lpad
  %exn = load ptr, ptr %exn.slot, align 8
  %sel = load i32, ptr %ehselector.slot, align 4
  %lpad.val = insertvalue { ptr, i32 } poison, ptr %exn, 0
  %lpad.val3 = insertvalue { ptr, i32 } %lpad.val, i32 %sel, 1
  resume { ptr, i32 } %lpad.val3
}

; Function Attrs: mustprogress nounwind uwtable
define linkonce_odr noundef i64 @_ZN8facebook5velox4bits7roundUpImmEET_S3_T0_(i64 noundef %value, i64 noundef %factor) #5 comdat {
entry:
  %value.addr = alloca i64, align 8
  %factor.addr = alloca i64, align 8
  store i64 %value, ptr %value.addr, align 8
  store i64 %factor, ptr %factor.addr, align 8
  %0 = load i64, ptr %value.addr, align 8
  %1 = load i64, ptr %factor.addr, align 8
  %sub = sub i64 %1, 1
  %add = add i64 %0, %sub
  %2 = load i64, ptr %factor.addr, align 8
  %div = udiv i64 %add, %2
  %3 = load i64, ptr %factor.addr, align 8
  %mul = mul i64 %div, %3
  ret i64 %mul
}

; Function Attrs: mustprogress uwtable
define noundef ptr @_ZN8facebook5velox6memory15MemoryAllocator13allocateBytesEmt(ptr noundef nonnull align 8 dereferenceable(880) %this, i64 noundef %bytes, i16 noundef zeroext %alignment) #4 align 2 personality ptr @__gxx_personality_v0 {
entry:
  %bytes.addr.i = alloca i64, align 8
  %retval = alloca ptr, align 8
  %this.addr = alloca ptr, align 8
  %bytes.addr = alloca i64, align 8
  %alignment.addr = alloca i16, align 2
  %result = alloca ptr, align 8
  %agg.tmp = alloca %"class.std::function.14", align 8
  %ref.tmp = alloca %class.anon.18, align 8
  %exn.slot = alloca ptr, align 8
  %ehselector.slot = alloca i32, align 4
  store ptr %this, ptr %this.addr, align 8
  store i64 %bytes, ptr %bytes.addr, align 8
  store i16 %alignment, ptr %alignment.addr, align 2
  %this1 = load ptr, ptr %this.addr, align 8
  %vtable = load ptr, ptr %this1, align 8
  %vfn = getelementptr inbounds ptr, ptr %vtable, i64 22
  %0 = load ptr, ptr %vfn, align 8
  %call = call noundef ptr %0(ptr noundef nonnull align 8 dereferenceable(880) %this1)
  %cmp = icmp eq ptr %call, null
  br i1 %cmp, label %if.then, label %if.end

if.then:                                          ; preds = %entry
  %1 = load i64, ptr %bytes.addr, align 8
  %2 = load i16, ptr %alignment.addr, align 2
  %vtable2 = load ptr, ptr %this1, align 8
  %vfn3 = getelementptr inbounds ptr, ptr %vtable2, i64 19
  %3 = load ptr, ptr %vfn3, align 8
  %call4 = call noundef ptr %3(ptr noundef nonnull align 8 dereferenceable(880) %this1, i64 noundef %1, i16 noundef zeroext %2)
  store ptr %call4, ptr %retval, align 8
  br label %return

if.end:                                           ; preds = %entry
  store ptr null, ptr %result, align 8
  %vtable5 = load ptr, ptr %this1, align 8
  %vfn6 = getelementptr inbounds ptr, ptr %vtable5, i64 22
  %4 = load ptr, ptr %vfn6, align 8
  %call7 = call noundef ptr %4(ptr noundef nonnull align 8 dereferenceable(880) %this1)
  %5 = load i64, ptr %bytes.addr, align 8
  store i64 %5, ptr %bytes.addr.i, align 8
  %6 = load i64, ptr %bytes.addr.i, align 8
  %call.i = call noundef i64 @_ZN8facebook5velox4bits7roundUpImmEET_S3_T0_(i64 noundef %6, i64 noundef 4096)
  %div.i = udiv i64 %call.i, 4096
  %7 = getelementptr inbounds %class.anon.18, ptr %ref.tmp, i32 0, i32 0
  store ptr %this1, ptr %7, align 8
  %8 = getelementptr inbounds %class.anon.18, ptr %ref.tmp, i32 0, i32 1
  store ptr %result, ptr %8, align 8
  %9 = getelementptr inbounds %class.anon.18, ptr %ref.tmp, i32 0, i32 2
  store ptr %bytes.addr, ptr %9, align 8
  %10 = getelementptr inbounds %class.anon.18, ptr %ref.tmp, i32 0, i32 3
  store ptr %alignment.addr, ptr %10, align 8
  call void @"_ZNSt8functionIFbRN8facebook5velox6memory10AllocationEEEC2IZNS2_15MemoryAllocator13allocateBytesEmtE3$_0vEEOT_"(ptr noundef nonnull align 8 dereferenceable(32) %agg.tmp, ptr noundef nonnull align 8 dereferenceable(32) %ref.tmp)
  %vtable9 = load ptr, ptr %call7, align 8
  %vfn10 = getelementptr inbounds ptr, ptr %vtable9, i64 2
  %11 = load ptr, ptr %vfn10, align 8
  %call11 = invoke noundef zeroext i1 %11(ptr noundef nonnull align 8 dereferenceable(8) %call7, i64 noundef %div.i, ptr noundef %agg.tmp)
          to label %invoke.cont unwind label %lpad

invoke.cont:                                      ; preds = %if.end
  call void @_ZNSt8functionIFbRN8facebook5velox6memory10AllocationEEED2Ev(ptr noundef nonnull align 8 dereferenceable(32) %agg.tmp) #3
  %12 = load ptr, ptr %result, align 8
  store ptr %12, ptr %retval, align 8
  br label %return

lpad:                                             ; preds = %if.end
  %13 = landingpad { ptr, i32 }
          cleanup
  %14 = extractvalue { ptr, i32 } %13, 0
  store ptr %14, ptr %exn.slot, align 8
  %15 = extractvalue { ptr, i32 } %13, 1
  store i32 %15, ptr %ehselector.slot, align 4
  call void @_ZNSt8functionIFbRN8facebook5velox6memory10AllocationEEED2Ev(ptr noundef nonnull align 8 dereferenceable(32) %agg.tmp) #3
  br label %eh.resume

return:                                           ; preds = %invoke.cont, %if.then
  %16 = load ptr, ptr %retval, align 8
  ret ptr %16

eh.resume:                                        ; preds = %lpad
  %exn = load ptr, ptr %exn.slot, align 8
  %sel = load i32, ptr %ehselector.slot, align 4
  %lpad.val = insertvalue { ptr, i32 } poison, ptr %exn, 0
  %lpad.val12 = insertvalue { ptr, i32 } %lpad.val, i32 %sel, 1
  resume { ptr, i32 } %lpad.val12
}