; Function Attrs: mustprogress uwtable
define noundef ptr @_ZN8facebook5velox6memory15MemoryAllocator13allocateBytesEmt(ptr noundef nonnull align 8 dereferenceable(880) %this, i64 noundef %bytes, i16 noundef zeroext %alignment) local_unnamed_addr #4 align 2 personality ptr @__gxx_personality_v0 {
entry:
  %bytes.addr = alloca i64, align 8
  %alignment.addr = alloca i16, align 2
  %result = alloca ptr, align 8
  %agg.tmp = alloca %"class.std::function.14", align 8
  store i64 %bytes, ptr %bytes.addr, align 8
  store i16 %alignment, ptr %alignment.addr, align 2
  %vtable = load ptr, ptr %this, align 8
  %vfn = getelementptr inbounds i8, ptr %vtable, i64 176
  %0 = load ptr, ptr %vfn, align 8
  %call = tail call noundef ptr %0(ptr noundef nonnull align 8 dereferenceable(880) %this)
  %cmp = icmp eq ptr %call, null
  br i1 %cmp, label %if.then, label %if.end

if.then:                                          ; preds = %entry
  %vtable2 = load ptr, ptr %this, align 8
  %vfn3 = getelementptr inbounds i8, ptr %vtable2, i64 152
  %1 = load ptr, ptr %vfn3, align 8
  %call4 = tail call noundef ptr %1(ptr noundef nonnull align 8 dereferenceable(880) %this, i64 noundef %bytes, i16 noundef zeroext %alignment)
  br label %return

if.end:                                           ; preds = %entry
  store ptr null, ptr %result, align 8
  %vtable5 = load ptr, ptr %this, align 8
  %vfn6 = getelementptr inbounds i8, ptr %vtable5, i64 176
  %2 = load ptr, ptr %vfn6, align 8
  %call7 = tail call noundef ptr %2(ptr noundef nonnull align 8 dereferenceable(880) %this)
  %add.i = add i64 %bytes, 4095
  %div.i1 = lshr i64 %add.i, 12
  %_M_manager.i.i = getelementptr inbounds i8, ptr %agg.tmp, i64 16
  %_M_invoker.i = getelementptr inbounds i8, ptr %agg.tmp, i64 24
  %3 = getelementptr inbounds i8, ptr %agg.tmp, i64 8
  store i64 0, ptr %3, align 8
  %call.i.i2.i = tail call noalias noundef nonnull dereferenceable(32) ptr @_Znwm(i64 noundef 32) #28
  store ptr %this, ptr %call.i.i2.i, align 16
  %ref.tmp.sroa.2.0.call.i.i2.i.sroa_idx = getelementptr inbounds i8, ptr %call.i.i2.i, i64 8
  store ptr %result, ptr %ref.tmp.sroa.2.0.call.i.i2.i.sroa_idx, align 8
  %ref.tmp.sroa.3.0.call.i.i2.i.sroa_idx = getelementptr inbounds i8, ptr %call.i.i2.i, i64 16
  store ptr %bytes.addr, ptr %ref.tmp.sroa.3.0.call.i.i2.i.sroa_idx, align 16
  %ref.tmp.sroa.4.0.call.i.i2.i.sroa_idx = getelementptr inbounds i8, ptr %call.i.i2.i, i64 24
  store ptr %alignment.addr, ptr %ref.tmp.sroa.4.0.call.i.i2.i.sroa_idx, align 8
  store ptr %call.i.i2.i, ptr %agg.tmp, align 8
  store ptr @"_ZNSt17_Function_handlerIFbRN8facebook5velox6memory10AllocationEEZNS2_15MemoryAllocator13allocateBytesEmtE3$_0E9_M_invokeERKSt9_Any_dataS4_", ptr %_M_invoker.i, align 8
  store ptr @"_ZNSt17_Function_handlerIFbRN8facebook5velox6memory10AllocationEEZNS2_15MemoryAllocator13allocateBytesEmtE3$_0E10_M_managerERSt9_Any_dataRKS9_St18_Manager_operation", ptr %_M_manager.i.i, align 8
  %vtable9 = load ptr, ptr %call7, align 8
  %vfn10 = getelementptr inbounds i8, ptr %vtable9, i64 16
  %4 = load ptr, ptr %vfn10, align 8
  %call11 = invoke noundef zeroext i1 %4(ptr noundef nonnull align 8 dereferenceable(8) %call7, i64 noundef %div.i1, ptr noundef nonnull %agg.tmp)
          to label %invoke.cont unwind label %lpad

invoke.cont:                                      ; preds = %if.end
  %5 = load ptr, ptr %_M_manager.i.i, align 8
  %tobool.not.i.i = icmp eq ptr %5, null
  br i1 %tobool.not.i.i, label %_ZNSt8functionIFbRN8facebook5velox6memory10AllocationEEED2Ev.exit, label %if.then.i.i

if.then.i.i:                                      ; preds = %invoke.cont
  %call.i.i = invoke noundef zeroext i1 %5(ptr noundef nonnull align 8 dereferenceable(16) %agg.tmp, ptr noundef nonnull align 8 dereferenceable(16) %agg.tmp, i32 noundef 3)
          to label %_ZNSt8functionIFbRN8facebook5velox6memory10AllocationEEED2Ev.exit unwind label %terminate.lpad.i.i

terminate.lpad.i.i:                               ; preds = %if.then.i.i
  %6 = landingpad { ptr, i32 }
          catch ptr null
  %7 = extractvalue { ptr, i32 } %6, 0
  call void @__clang_call_terminate(ptr %7) #27
  unreachable

_ZNSt8functionIFbRN8facebook5velox6memory10AllocationEEED2Ev.exit: ; preds = %invoke.cont, %if.then.i.i
  %8 = load ptr, ptr %result, align 8
  br label %return

lpad:                                             ; preds = %if.end
  %9 = landingpad { ptr, i32 }
          cleanup
  %10 = load ptr, ptr %_M_manager.i.i, align 8
  %tobool.not.i.i4 = icmp eq ptr %10, null
  br i1 %tobool.not.i.i4, label %_ZNSt8functionIFbRN8facebook5velox6memory10AllocationEEED2Ev.exit8, label %if.then.i.i5

if.then.i.i5:                                     ; preds = %lpad
  %call.i.i6 = invoke noundef zeroext i1 %10(ptr noundef nonnull align 8 dereferenceable(16) %agg.tmp, ptr noundef nonnull align 8 dereferenceable(16) %agg.tmp, i32 noundef 3)
          to label %_ZNSt8functionIFbRN8facebook5velox6memory10AllocationEEED2Ev.exit8 unwind label %terminate.lpad.i.i7

terminate.lpad.i.i7:                              ; preds = %if.then.i.i5
  %11 = landingpad { ptr, i32 }
          catch ptr null
  %12 = extractvalue { ptr, i32 } %11, 0
  call void @__clang_call_terminate(ptr %12) #27
  unreachable

_ZNSt8functionIFbRN8facebook5velox6memory10AllocationEEED2Ev.exit8: ; preds = %lpad, %if.then.i.i5
  resume { ptr, i32 } %9

return:                                           ; preds = %_ZNSt8functionIFbRN8facebook5velox6memory10AllocationEEED2Ev.exit, %if.then
  %retval.0 = phi ptr [ %call4, %if.then ], [ %8, %_ZNSt8functionIFbRN8facebook5velox6memory10AllocationEEED2Ev.exit ]
  ret ptr %retval.0
}